target datalayout = "e-m:e-p270:32:32-p271:32:32-p272:64:64-i64:64-i128:128-f80:128-n8:16:32:64-S128"
target triple = "x86_64-pc-linux-gnu"

%struct.bulk_checkin_packfile = type { ptr, ptr, i64, %struct.pack_idx_option, ptr, i32, i32 }
%struct.pack_idx_option = type { i32, i32, i32, i32, i32, ptr, i64 }
%struct.strbuf = type { i64, i64, ptr }
%union.git_hash_ctx = type { %struct.SHA1_CTX }
%struct.SHA1_CTX = type { i64, [5 x i32], [64 x i8], i32, i32, i32, i32, i32, ptr, [5 x i32], [5 x i32], [80 x i32], [80 x i32], [80 x [5 x i32]] }
%struct.repository = type { ptr, ptr, ptr, ptr, ptr, %struct.strmap, %struct.strmap, %struct.repo_path_cache, ptr, ptr, ptr, ptr, %struct.repo_settings, ptr, ptr, ptr, ptr, ptr, ptr, i32, i32, i32, ptr, ptr, i32, i32, i8 }
%struct.strmap = type { %struct.hashmap, ptr, i8 }
%struct.hashmap = type { ptr, ptr, ptr, i32, i32, i32, i32, i8 }
%struct.repo_path_cache = type { ptr, ptr, ptr, ptr, ptr, ptr, ptr }
%struct.repo_settings = type { i32, i32, i32, i32, i32, i32, i32, i32, i32, i32, i32, i32, ptr, i32, i32, i32, i32, i32, i32, i32, i64, i64, i64 }
%struct.hashfile = type { i32, i32, i32, %union.git_hash_ctx, i64, ptr, ptr, i32, i32, i64, ptr, ptr, ptr, i32 }

@the_repository = external global ptr, align 8
@__const.flush_bulk_checkin_packfile.packname = private unnamed_addr constant %struct.strbuf { i64 0, i64 0, ptr @strbuf_slopbuf }, align 8
@.str.13 = private unnamed_addr constant [17 x i8] c"%s/pack/pack-%s.\00", align 1

; Function Attrs: nounwind uwtable
define internal void @finish_tmp_packfile(ptr noundef %0, ptr noundef %1, ptr noundef %2, i32 noundef %3, ptr noundef %4, ptr noundef %5) #0 {
  %7 = alloca ptr, align 8
  %8 = alloca ptr, align 8
  %9 = alloca ptr, align 8
  %10 = alloca i32, align 4
  %11 = alloca ptr, align 8
  %12 = alloca ptr, align 8
  %13 = alloca ptr, align 8
  store ptr %0, ptr %7, align 8, !tbaa !86
  store ptr %1, ptr %8, align 8, !tbaa !13
  store ptr %2, ptr %9, align 8, !tbaa !88
  store i32 %3, ptr %10, align 4, !tbaa !4
  store ptr %4, ptr %11, align 8, !tbaa !89
  store ptr %5, ptr %12, align 8, !tbaa !13
  call void @llvm.lifetime.start.p0(i64 8, ptr %13) #11
  store ptr null, ptr %13, align 8, !tbaa !13
  %14 = load ptr, ptr @the_repository, align 8, !tbaa !11
  %15 = getelementptr inbounds nuw %struct.repository, ptr %14, i32 0, i32 17
  %16 = load ptr, ptr %15, align 8, !tbaa !24
  %17 = load ptr, ptr %7, align 8, !tbaa !86
  %18 = load ptr, ptr %8, align 8, !tbaa !13
  %19 = load ptr, ptr %9, align 8, !tbaa !88
  %20 = load i32, ptr %10, align 4, !tbaa !4
  %21 = load ptr, ptr %11, align 8, !tbaa !89
  %22 = load ptr, ptr %12, align 8, !tbaa !13
  call void @stage_tmp_packfiles(ptr noundef %16, ptr noundef %17, ptr noundef %18, ptr noundef %19, i32 noundef %20, ptr noundef null, ptr noundef %21, ptr noundef %22, ptr noundef %13)
  %23 = load ptr, ptr %7, align 8, !tbaa !86
  call void @rename_tmp_packfile_idx(ptr noundef %23, ptr noundef %13)
  %24 = load ptr, ptr %13, align 8, !tbaa !13
  call void @free(ptr noundef %24) #11
  call void @llvm.lifetime.end.p0(i64 8, ptr %13) #11
  ret void
}

; Function Attrs: nounwind uwtable
define internal void @flush_bulk_checkin_packfile(ptr noundef %0) #0 {
  %2 = alloca ptr, align 8
  %3 = alloca [32 x i8], align 16
  %4 = alloca %struct.strbuf, align 8
  %5 = alloca i32, align 4
  %6 = alloca i32, align 4
  %7 = alloca i32, align 4
  store ptr %0, ptr %2, align 8, !tbaa !20
  call void @llvm.lifetime.start.p0(i64 32, ptr %3) #11
  call void @llvm.lifetime.start.p0(i64 24, ptr %4) #11
  call void @llvm.memcpy.p0.p0.i64(ptr align 8 %4, ptr align 8 @__const.flush_bulk_checkin_packfile.packname, i64 24, i1 false)
  call void @llvm.lifetime.start.p0(i64 4, ptr %5) #11
  %8 = load ptr, ptr %2, align 8, !tbaa !20
  %9 = getelementptr inbounds nuw %struct.bulk_checkin_packfile, ptr %8, i32 0, i32 1
  %10 = load ptr, ptr %9, align 8, !tbaa !45
  %11 = icmp ne ptr %10, null
  br i1 %11, label %13, label %12

12:                                               ; preds = %1
  store i32 1, ptr %6, align 4
  br label %111

13:                                               ; preds = %1
  %14 = load ptr, ptr %2, align 8, !tbaa !20
  %15 = getelementptr inbounds nuw %struct.bulk_checkin_packfile, ptr %14, i32 0, i32 6
  %16 = load i32, ptr %15, align 4, !tbaa !59
  %17 = icmp eq i32 %16, 0
  br i1 %17, label %18, label %32

18:                                               ; preds = %13
  %19 = load ptr, ptr %2, align 8, !tbaa !20
  %20 = getelementptr inbounds nuw %struct.bulk_checkin_packfile, ptr %19, i32 0, i32 1
  %21 = load ptr, ptr %20, align 8, !tbaa !45
  %22 = getelementptr inbounds nuw %struct.hashfile, ptr %21, i32 0, i32 0
  %23 = load i32, ptr %22, align 8, !tbaa !62
  %24 = call i32 @close(i32 noundef %23)
  %25 = load ptr, ptr %2, align 8, !tbaa !20
  %26 = getelementptr inbounds nuw %struct.bulk_checkin_packfile, ptr %25, i32 0, i32 1
  %27 = load ptr, ptr %26, align 8, !tbaa !45
  call void @free_hashfile(ptr noundef %27)
  %28 = load ptr, ptr %2, align 8, !tbaa !20
  %29 = getelementptr inbounds nuw %struct.bulk_checkin_packfile, ptr %28, i32 0, i32 0
  %30 = load ptr, ptr %29, align 8, !tbaa !65
  %31 = call i32 @unlink(ptr noundef %30) #11
  br label %102

32:                                               ; preds = %13
  %33 = load ptr, ptr %2, align 8, !tbaa !20
  %34 = getelementptr inbounds nuw %struct.bulk_checkin_packfile, ptr %33, i32 0, i32 6
  %35 = load i32, ptr %34, align 4, !tbaa !59
  %36 = icmp eq i32 %35, 1
  br i1 %36, label %37, label %43

37:                                               ; preds = %32
  %38 = load ptr, ptr %2, align 8, !tbaa !20
  %39 = getelementptr inbounds nuw %struct.bulk_checkin_packfile, ptr %38, i32 0, i32 1
  %40 = load ptr, ptr %39, align 8, !tbaa !45
  %41 = getelementptr inbounds [32 x i8], ptr %3, i64 0, i64 0
  %42 = call i32 @finalize_hashfile(ptr noundef %40, ptr noundef %41, i32 noundef 2, i32 noundef 7)
  br label %66

43:                                               ; preds = %32
  call void @llvm.lifetime.start.p0(i64 4, ptr %7) #11
  %44 = load ptr, ptr %2, align 8, !tbaa !20
  %45 = getelementptr inbounds nuw %struct.bulk_checkin_packfile, ptr %44, i32 0, i32 1
  %46 = load ptr, ptr %45, align 8, !tbaa !45
  %47 = getelementptr inbounds [32 x i8], ptr %3, i64 0, i64 0
  %48 = call i32 @finalize_hashfile(ptr noundef %46, ptr noundef %47, i32 noundef 2, i32 noundef 0)
  store i32 %48, ptr %7, align 4, !tbaa !4
  %49 = load ptr, ptr @the_repository, align 8, !tbaa !11
  %50 = getelementptr inbounds nuw %struct.repository, ptr %49, i32 0, i32 17
  %51 = load ptr, ptr %50, align 8, !tbaa !24
  %52 = load i32, ptr %7, align 4, !tbaa !4
  %53 = getelementptr inbounds [32 x i8], ptr %3, i64 0, i64 0
  %54 = load ptr, ptr %2, align 8, !tbaa !20
  %55 = getelementptr inbounds nuw %struct.bulk_checkin_packfile, ptr %54, i32 0, i32 0
  %56 = load ptr, ptr %55, align 8, !tbaa !65
  %57 = load ptr, ptr %2, align 8, !tbaa !20
  %58 = getelementptr inbounds nuw %struct.bulk_checkin_packfile, ptr %57, i32 0, i32 6
  %59 = load i32, ptr %58, align 4, !tbaa !59
  %60 = getelementptr inbounds [32 x i8], ptr %3, i64 0, i64 0
  %61 = load ptr, ptr %2, align 8, !tbaa !20
  %62 = getelementptr inbounds nuw %struct.bulk_checkin_packfile, ptr %61, i32 0, i32 2
  %63 = load i64, ptr %62, align 8, !tbaa !51
  call void @fixup_pack_header_footer(ptr noundef %51, i32 noundef %52, ptr noundef %53, ptr noundef %56, i32 noundef %59, ptr noundef %60, i64 noundef %63)
  %64 = load i32, ptr %7, align 4, !tbaa !4
  %65 = call i32 @close(i32 noundef %64)
  call void @llvm.lifetime.end.p0(i64 4, ptr %7) #11
  br label %66

66:                                               ; preds = %43, %37
  br label %67

67:                                               ; preds = %66
  %68 = load ptr, ptr @the_repository, align 8, !tbaa !11
  %69 = call ptr @repo_get_object_directory(ptr noundef %68)
  %70 = getelementptr inbounds [32 x i8], ptr %3, i64 0, i64 0
  %71 = call ptr @hash_to_hex(ptr noundef %70)
  call void (ptr, ptr, ...) @strbuf_addf(ptr noundef %4, ptr noundef @.str.13, ptr noundef %69, ptr noundef %71)
  %72 = load ptr, ptr %2, align 8, !tbaa !20
  %73 = getelementptr inbounds nuw %struct.bulk_checkin_packfile, ptr %72, i32 0, i32 0
  %74 = load ptr, ptr %73, align 8, !tbaa !65
  %75 = load ptr, ptr %2, align 8, !tbaa !20
  %76 = getelementptr inbounds nuw %struct.bulk_checkin_packfile, ptr %75, i32 0, i32 4
  %77 = load ptr, ptr %76, align 8, !tbaa !61
  %78 = load ptr, ptr %2, align 8, !tbaa !20
  %79 = getelementptr inbounds nuw %struct.bulk_checkin_packfile, ptr %78, i32 0, i32 6
  %80 = load i32, ptr %79, align 4, !tbaa !59
  %81 = load ptr, ptr %2, align 8, !tbaa !20
  %82 = getelementptr inbounds nuw %struct.bulk_checkin_packfile, ptr %81, i32 0, i32 3
  %83 = getelementptr inbounds [32 x i8], ptr %3, i64 0, i64 0
  call void @finish_tmp_packfile(ptr noundef %4, ptr noundef %74, ptr noundef %77, i32 noundef %80, ptr noundef %82, ptr noundef %83)
  store i32 0, ptr %5, align 4, !tbaa !4
  br label %84

84:                                               ; preds = %98, %67
  %85 = load i32, ptr %5, align 4, !tbaa !4
  %86 = load ptr, ptr %2, align 8, !tbaa !20
  %87 = getelementptr inbounds nuw %struct.bulk_checkin_packfile, ptr %86, i32 0, i32 6
  %88 = load i32, ptr %87, align 4, !tbaa !59
  %89 = icmp ult i32 %85, %88
  br i1 %89, label %90, label %101

90:                                               ; preds = %84
  %91 = load ptr, ptr %2, align 8, !tbaa !20
  %92 = getelementptr inbounds nuw %struct.bulk_checkin_packfile, ptr %91, i32 0, i32 4
  %93 = load ptr, ptr %92, align 8, !tbaa !61
  %94 = load i32, ptr %5, align 4, !tbaa !4
  %95 = sext i32 %94 to i64
  %96 = getelementptr inbounds ptr, ptr %93, i64 %95
  %97 = load ptr, ptr %96, align 8, !tbaa !22
  call void @free(ptr noundef %97) #11
  br label %98

98:                                               ; preds = %90
  %99 = load i32, ptr %5, align 4, !tbaa !4
  %100 = add nsw i32 %99, 1
  store i32 %100, ptr %5, align 4, !tbaa !4
  br label %84, !llvm.loop !66

101:                                              ; preds = %84
  br label %102

102:                                              ; preds = %101, %18
  %103 = load ptr, ptr %2, align 8, !tbaa !20
  %104 = getelementptr inbounds nuw %struct.bulk_checkin_packfile, ptr %103, i32 0, i32 0
  %105 = load ptr, ptr %104, align 8, !tbaa !65
  call void @free(ptr noundef %105) #11
  %106 = load ptr, ptr %2, align 8, !tbaa !20
  %107 = getelementptr inbounds nuw %struct.bulk_checkin_packfile, ptr %106, i32 0, i32 4
  %108 = load ptr, ptr %107, align 8, !tbaa !61
  call void @free(ptr noundef %108) #11
  %109 = load ptr, ptr %2, align 8, !tbaa !20
  call void @llvm.memset.p0.i64(ptr align 8 %109, i8 0, i64 80, i1 false)
  call void @strbuf_release(ptr noundef %4)
  %110 = load ptr, ptr @the_repository, align 8, !tbaa !11
  call void @reprepare_packed_git(ptr noundef %110)
  store i32 0, ptr %6, align 4
  br label %111

111:                                              ; preds = %102, %12
  call void @llvm.lifetime.end.p0(i64 4, ptr %5) #11
  call void @llvm.lifetime.end.p0(i64 24, ptr %4) #11
  call void @llvm.lifetime.end.p0(i64 32, ptr %3) #11
  %112 = load i32, ptr %6, align 4
  switch i32 %112, label %114 [
    i32 0, label %113
    i32 1, label %113
  ]

113:                                              ; preds = %111, %111
  ret void

114:                                              ; preds = %111
  unreachable
}