; Function Attrs: nounwind uwtable
define internal fastcc void @flush_bulk_checkin_packfile() unnamed_addr #0 {
  %1 = alloca ptr, align 8
  %2 = alloca [32 x i8], align 16
  %3 = alloca %struct.strbuf, align 8
  call void @llvm.lifetime.start.p0(i64 32, ptr nonnull %2) #13
  call void @llvm.lifetime.start.p0(i64 24, ptr nonnull %3) #13
  call void @llvm.memcpy.p0.p0.i64(ptr noundef nonnull align 8 dereferenceable(24) %3, ptr noundef nonnull align 8 dereferenceable(24) @__const.flush_batch_fsync.temp_path, i64 24, i1 false)
  %4 = load ptr, ptr getelementptr inbounds nuw (i8, ptr @bulk_checkin_packfile, i64 8), align 8, !tbaa !37
  %.not = icmp eq ptr %4, null
  br i1 %.not, label %45, label %5

5:                                                ; preds = %0
  %6 = load i32, ptr getelementptr inbounds nuw (i8, ptr @bulk_checkin_packfile, i64 76), align 4, !tbaa !54
  switch i32 %6, label %15 [
    i32 0, label %7
    i32 1, label %13
  ]

7:                                                ; preds = %5
  %8 = load i32, ptr %4, align 8, !tbaa !66
  %9 = tail call i32 @close(i32 noundef %8) #13
  %10 = load ptr, ptr getelementptr inbounds nuw (i8, ptr @bulk_checkin_packfile, i64 8), align 8, !tbaa !37
  tail call void @free_hashfile(ptr noundef %10) #13
  %11 = load ptr, ptr @bulk_checkin_packfile, align 8, !tbaa !69
  %12 = tail call i32 @unlink(ptr noundef %11) #13
  br label %.loopexit

13:                                               ; preds = %5
  %14 = call i32 @finalize_hashfile(ptr noundef nonnull %4, ptr noundef nonnull %2, i32 noundef 2, i32 noundef 7) #13
  br label %24

15:                                               ; preds = %5
  %16 = call i32 @finalize_hashfile(ptr noundef nonnull %4, ptr noundef nonnull %2, i32 noundef 2, i32 noundef 0) #13
  %17 = load ptr, ptr @the_repository, align 8, !tbaa !8
  %18 = getelementptr inbounds nuw i8, ptr %17, i64 400
  %19 = load ptr, ptr %18, align 8, !tbaa !13
  %20 = load ptr, ptr @bulk_checkin_packfile, align 8, !tbaa !69
  %21 = load i32, ptr getelementptr inbounds nuw (i8, ptr @bulk_checkin_packfile, i64 76), align 4, !tbaa !54
  %22 = load i64, ptr getelementptr inbounds nuw (i8, ptr @bulk_checkin_packfile, i64 16), align 8, !tbaa !43
  call void @fixup_pack_header_footer(ptr noundef %19, i32 noundef %16, ptr noundef nonnull %2, ptr noundef %20, i32 noundef %21, ptr noundef nonnull %2, i64 noundef %22) #13
  %23 = call i32 @close(i32 noundef %16) #13
  br label %24

24:                                               ; preds = %13, %15
  %25 = load ptr, ptr @the_repository, align 8, !tbaa !8
  %26 = call ptr @repo_get_object_directory(ptr noundef %25) #13
  %27 = call ptr @hash_to_hex(ptr noundef nonnull %2) #13
  call void (ptr, ptr, ...) @strbuf_addf(ptr noundef nonnull %3, ptr noundef nonnull @.str.13, ptr noundef %26, ptr noundef %27) #13
  %28 = load ptr, ptr @bulk_checkin_packfile, align 8, !tbaa !69
  %29 = load ptr, ptr getelementptr inbounds nuw (i8, ptr @bulk_checkin_packfile, i64 64), align 8, !tbaa !59
  %30 = load i32, ptr getelementptr inbounds nuw (i8, ptr @bulk_checkin_packfile, i64 76), align 4, !tbaa !54
  call void @llvm.lifetime.start.p0(i64 8, ptr nonnull %1) #13
  store ptr null, ptr %1, align 8, !tbaa !70
  %31 = load ptr, ptr @the_repository, align 8, !tbaa !8
  %32 = getelementptr inbounds nuw i8, ptr %31, i64 400
  %33 = load ptr, ptr %32, align 8, !tbaa !13
  call void @stage_tmp_packfiles(ptr noundef %33, ptr noundef nonnull %3, ptr noundef %28, ptr noundef %29, i32 noundef %30, ptr noundef null, ptr noundef nonnull getelementptr inbounds nuw (i8, ptr @bulk_checkin_packfile, i64 24), ptr noundef nonnull %2, ptr noundef nonnull %1) #13
  call void @rename_tmp_packfile_idx(ptr noundef nonnull %3, ptr noundef nonnull %1) #13
  %34 = load ptr, ptr %1, align 8, !tbaa !70
  call void @free(ptr noundef %34) #13
  call void @llvm.lifetime.end.p0(i64 8, ptr nonnull %1) #13
  %35 = load i32, ptr getelementptr inbounds nuw (i8, ptr @bulk_checkin_packfile, i64 76), align 4, !tbaa !54
  %.not2 = icmp eq i32 %35, 0
  br i1 %.not2, label %.loopexit, label %.lr.ph

.lr.ph:                                           ; preds = %24, %.lr.ph
  %indvars.iv = phi i64 [ %indvars.iv.next, %.lr.ph ], [ 0, %24 ]
  %36 = load ptr, ptr getelementptr inbounds nuw (i8, ptr @bulk_checkin_packfile, i64 64), align 8, !tbaa !59
  %37 = getelementptr inbounds nuw ptr, ptr %36, i64 %indvars.iv
  %38 = load ptr, ptr %37, align 8, !tbaa !62
  call void @free(ptr noundef %38) #13
  %indvars.iv.next = add nuw nsw i64 %indvars.iv, 1
  %39 = load i32, ptr getelementptr inbounds nuw (i8, ptr @bulk_checkin_packfile, i64 76), align 4, !tbaa !54
  %40 = zext i32 %39 to i64
  %41 = icmp samesign ult i64 %indvars.iv.next, %40
  br i1 %41, label %.lr.ph, label %.loopexit, !llvm.loop !71

.loopexit:                                        ; preds = %.lr.ph, %24, %7
  %42 = load ptr, ptr @bulk_checkin_packfile, align 8, !tbaa !69
  call void @free(ptr noundef %42) #13
  %43 = load ptr, ptr getelementptr inbounds nuw (i8, ptr @bulk_checkin_packfile, i64 64), align 8, !tbaa !59
  call void @free(ptr noundef %43) #13
  call void @llvm.memset.p0.i64(ptr noundef nonnull align 8 dereferenceable(80) @bulk_checkin_packfile, i8 0, i64 80, i1 false)
  call void @strbuf_release(ptr noundef nonnull %3) #13
  %44 = load ptr, ptr @the_repository, align 8, !tbaa !8
  call void @reprepare_packed_git(ptr noundef %44) #13
  br label %45

45:                                               ; preds = %0, %.loopexit
  call void @llvm.lifetime.end.p0(i64 24, ptr nonnull %3) #13
  call void @llvm.lifetime.end.p0(i64 32, ptr nonnull %2) #13
  ret void
}